target datalayout = "e-m:e-p270:32:32-p271:32:32-p272:64:64-i64:64-i128:128-f80:128-n8:16:32:64-S128"
target triple = "x86_64-pc-linux-gnu"

%class.ComprDataIO = type <{ i8, [7 x i8], i64, ptr, i8, [7 x i8], i64, ptr, i64, ptr, i64, i64, i8, i8, i8, i8, [4 x i8], ptr, ptr, ptr, ptr, ptr, ptr, ptr, i32, i32, i8, i8, i8, [5 x i8], i64, i64, i64, i64, i64, i64, i64, %class.DataHash, %class.DataHash, %class.DataHash, i8, i8, [6 x i8] }>
%class.DataHash = type { i32, i32, ptr }

; Function Attrs: mustprogress uwtable
define void @_ZN11ComprDataIO13SetEncryptionEb12CRYPT_METHODP11SecPasswordPKhS4_jPhS5_(ptr noundef nonnull align 8 dereferenceable(266) %0, i1 noundef zeroext %1, i32 noundef %2, ptr noundef %3, ptr noundef %4, ptr noundef %5, i32 noundef %6, ptr noundef %7, ptr noundef %8) #0 align 2 {
  %10 = alloca ptr, align 8
  %11 = alloca i8, align 1
  %12 = alloca i32, align 4
  %13 = alloca ptr, align 8
  %14 = alloca ptr, align 8
  %15 = alloca ptr, align 8
  %16 = alloca i32, align 4
  %17 = alloca ptr, align 8
  %18 = alloca ptr, align 8
  store ptr %0, ptr %10, align 8
  %19 = zext i1 %1 to i8
  store i8 %19, ptr %11, align 1
  store i32 %2, ptr %12, align 4
  store ptr %3, ptr %13, align 8
  store ptr %4, ptr %14, align 8
  store ptr %5, ptr %15, align 8
  store i32 %6, ptr %16, align 4
  store ptr %7, ptr %17, align 8
  store ptr %8, ptr %18, align 8
  %20 = load ptr, ptr %10, align 8
  %21 = load i8, ptr %11, align 1
  %22 = trunc i8 %21 to i1
  br i1 %22, label %23, label %36

23:                                               ; preds = %9
  %24 = getelementptr inbounds %class.ComprDataIO, ptr %20, i32 0, i32 22
  %25 = load ptr, ptr %24, align 8
  %26 = load i32, ptr %12, align 4
  %27 = load ptr, ptr %13, align 8
  %28 = load ptr, ptr %14, align 8
  %29 = load ptr, ptr %15, align 8
  %30 = load i32, ptr %16, align 4
  %31 = load ptr, ptr %17, align 8
  %32 = load ptr, ptr %18, align 8
  %33 = call noundef zeroext i1 @_ZN9CryptData12SetCryptKeysEb12CRYPT_METHODP11SecPasswordPKhS4_jPhS5_(ptr noundef nonnull align 8 dereferenceable(2516) %25, i1 noundef zeroext true, i32 noundef %26, ptr noundef %27, ptr noundef %28, ptr noundef %29, i32 noundef %30, ptr noundef %31, ptr noundef %32)
  %34 = getelementptr inbounds %class.ComprDataIO, ptr %20, i32 0, i32 40
  %35 = zext i1 %33 to i8
  store i8 %35, ptr %34, align 8
  br label %49

36:                                               ; preds = %9
  %37 = getelementptr inbounds %class.ComprDataIO, ptr %20, i32 0, i32 23
  %38 = load ptr, ptr %37, align 8
  %39 = load i32, ptr %12, align 4
  %40 = load ptr, ptr %13, align 8
  %41 = load ptr, ptr %14, align 8
  %42 = load ptr, ptr %15, align 8
  %43 = load i32, ptr %16, align 4
  %44 = load ptr, ptr %17, align 8
  %45 = load ptr, ptr %18, align 8
  %46 = call noundef zeroext i1 @_ZN9CryptData12SetCryptKeysEb12CRYPT_METHODP11SecPasswordPKhS4_jPhS5_(ptr noundef nonnull align 8 dereferenceable(2516) %38, i1 noundef zeroext false, i32 noundef %39, ptr noundef %40, ptr noundef %41, ptr noundef %42, i32 noundef %43, ptr noundef %44, ptr noundef %45)
  %47 = getelementptr inbounds %class.ComprDataIO, ptr %20, i32 0, i32 41
  %48 = zext i1 %46 to i8
  store i8 %48, ptr %47, align 1
  br label %49

49:                                               ; preds = %36, %23
  ret void
}