; Function Attrs: mustprogress uwtable
define void @_ZN11ComprDataIO13SetEncryptionEb12CRYPT_METHODP11SecPasswordPKhS4_jPhS5_(ptr noundef nonnull align 8 captures(none) dereferenceable(266) %0, i1 noundef zeroext %1, i32 noundef %2, ptr noundef %3, ptr noundef %4, ptr noundef %5, i32 noundef %6, ptr noundef %7, ptr noundef %8) local_unnamed_addr #0 align 2 {
  br i1 %1, label %10, label %16

10:                                               ; preds = %9
  %11 = getelementptr inbounds nuw i8, ptr %0, i64 128
  %12 = load ptr, ptr %11, align 8
  %13 = tail call noundef zeroext i1 @_ZN9CryptData12SetCryptKeysEb12CRYPT_METHODP11SecPasswordPKhS4_jPhS5_(ptr noundef nonnull align 8 dereferenceable(2516) %12, i1 noundef zeroext true, i32 noundef %2, ptr noundef %3, ptr noundef %4, ptr noundef %5, i32 noundef %6, ptr noundef %7, ptr noundef %8)
  %14 = getelementptr inbounds nuw i8, ptr %0, i64 264
  %15 = zext i1 %13 to i8
  store i8 %15, ptr %14, align 8
  br label %22

16:                                               ; preds = %9
  %17 = getelementptr inbounds nuw i8, ptr %0, i64 136
  %18 = load ptr, ptr %17, align 8
  %19 = tail call noundef zeroext i1 @_ZN9CryptData12SetCryptKeysEb12CRYPT_METHODP11SecPasswordPKhS4_jPhS5_(ptr noundef nonnull align 8 dereferenceable(2516) %18, i1 noundef zeroext false, i32 noundef %2, ptr noundef %3, ptr noundef %4, ptr noundef %5, i32 noundef %6, ptr noundef %7, ptr noundef %8)
  %20 = getelementptr inbounds nuw i8, ptr %0, i64 265
  %21 = zext i1 %19 to i8
  store i8 %21, ptr %20, align 1
  br label %22

22:                                               ; preds = %16, %10
  ret void
}